target datalayout = "e-m:e-p270:32:32-p271:32:32-p272:64:64-i64:64-i128:128-f80:128-n8:16:32:64-S128"
target triple = "x86_64-pc-linux-gnu"

%"class.datalog::execution_context" = type <{ ptr, %class.vector, %class.u_map, ptr, i32, %"struct.datalog::execution_context::stats", [4 x i8] }>
%class.vector = type { ptr }
%class.u_map = type { %class.map }
%class.map = type { %class.table2map }
%class.table2map = type { %class.core_hashtable }
%class.core_hashtable = type <{ ptr, i32, i32, i32, [4 x i8] }>
%"struct.datalog::execution_context::stats" = type { i32, i32, i32, i32, i32, i32, i32, i32, i32, i32, i32, i32, i32, i32 }

@.str.4 = private unnamed_addr constant [9 x i8] c"dl.joins\00", align 1
@.str.5 = private unnamed_addr constant [11 x i8] c"dl.project\00", align 1
@.str.6 = private unnamed_addr constant [10 x i8] c"dl.filter\00", align 1
@.str.7 = private unnamed_addr constant [9 x i8] c"dl.total\00", align 1
@.str.8 = private unnamed_addr constant [19 x i8] c"dl.unary_singleton\00", align 1
@.str.9 = private unnamed_addr constant [22 x i8] c"dl.filter_by_negation\00", align 1
@.str.10 = private unnamed_addr constant [24 x i8] c"dl.select_equal_project\00", align 1
@.str.11 = private unnamed_addr constant [16 x i8] c"dl.join_project\00", align 1
@.str.12 = private unnamed_addr constant [18 x i8] c"dl.project_rename\00", align 1
@.str.13 = private unnamed_addr constant [9 x i8] c"dl.union\00", align 1
@.str.14 = private unnamed_addr constant [30 x i8] c"dl.filter_interpreted_project\00", align 1
@.str.15 = private unnamed_addr constant [13 x i8] c"dl.filter_id\00", align 1
@.str.16 = private unnamed_addr constant [13 x i8] c"dl.filter_eq\00", align 1

; Function Attrs: mustprogress uwtable
define hidden void @_ZNK7datalog17execution_context18collect_statisticsER10statistics(ptr noundef nonnull align 8 dereferenceable(108) %0, ptr noundef nonnull align 8 dereferenceable(16) %1) #4 align 2 {
  %3 = alloca ptr, align 8
  %4 = alloca ptr, align 8
  store ptr %0, ptr %3, align 8, !tbaa !3
  store ptr %1, ptr %4, align 8, !tbaa !267
  %5 = load ptr, ptr %3, align 8
  %6 = load ptr, ptr %4, align 8, !tbaa !267
  %7 = getelementptr inbounds nuw %"class.datalog::execution_context", ptr %5, i32 0, i32 5
  %8 = getelementptr inbounds nuw %"struct.datalog::execution_context::stats", ptr %7, i32 0, i32 0
  %9 = load i32, ptr %8, align 4, !tbaa !269
  call void @_ZN10statistics6updateEPKcj(ptr noundef nonnull align 8 dereferenceable(16) %6, ptr noundef @.str.4, i32 noundef %9)
  %10 = load ptr, ptr %4, align 8, !tbaa !267
  %11 = getelementptr inbounds nuw %"class.datalog::execution_context", ptr %5, i32 0, i32 5
  %12 = getelementptr inbounds nuw %"struct.datalog::execution_context::stats", ptr %11, i32 0, i32 1
  %13 = load i32, ptr %12, align 4, !tbaa !270
  call void @_ZN10statistics6updateEPKcj(ptr noundef nonnull align 8 dereferenceable(16) %10, ptr noundef @.str.5, i32 noundef %13)
  %14 = load ptr, ptr %4, align 8, !tbaa !267
  %15 = getelementptr inbounds nuw %"class.datalog::execution_context", ptr %5, i32 0, i32 5
  %16 = getelementptr inbounds nuw %"struct.datalog::execution_context::stats", ptr %15, i32 0, i32 2
  %17 = load i32, ptr %16, align 4, !tbaa !271
  call void @_ZN10statistics6updateEPKcj(ptr noundef nonnull align 8 dereferenceable(16) %14, ptr noundef @.str.6, i32 noundef %17)
  %18 = load ptr, ptr %4, align 8, !tbaa !267
  %19 = getelementptr inbounds nuw %"class.datalog::execution_context", ptr %5, i32 0, i32 5
  %20 = getelementptr inbounds nuw %"struct.datalog::execution_context::stats", ptr %19, i32 0, i32 3
  %21 = load i32, ptr %20, align 4, !tbaa !272
  call void @_ZN10statistics6updateEPKcj(ptr noundef nonnull align 8 dereferenceable(16) %18, ptr noundef @.str.7, i32 noundef %21)
  %22 = load ptr, ptr %4, align 8, !tbaa !267
  %23 = getelementptr inbounds nuw %"class.datalog::execution_context", ptr %5, i32 0, i32 5
  %24 = getelementptr inbounds nuw %"struct.datalog::execution_context::stats", ptr %23, i32 0, i32 4
  %25 = load i32, ptr %24, align 4, !tbaa !273
  call void @_ZN10statistics6updateEPKcj(ptr noundef nonnull align 8 dereferenceable(16) %22, ptr noundef @.str.8, i32 noundef %25)
  %26 = load ptr, ptr %4, align 8, !tbaa !267
  %27 = getelementptr inbounds nuw %"class.datalog::execution_context", ptr %5, i32 0, i32 5
  %28 = getelementptr inbounds nuw %"struct.datalog::execution_context::stats", ptr %27, i32 0, i32 5
  %29 = load i32, ptr %28, align 4, !tbaa !274
  call void @_ZN10statistics6updateEPKcj(ptr noundef nonnull align 8 dereferenceable(16) %26, ptr noundef @.str.9, i32 noundef %29)
  %30 = load ptr, ptr %4, align 8, !tbaa !267
  %31 = getelementptr inbounds nuw %"class.datalog::execution_context", ptr %5, i32 0, i32 5
  %32 = getelementptr inbounds nuw %"struct.datalog::execution_context::stats", ptr %31, i32 0, i32 6
  %33 = load i32, ptr %32, align 4, !tbaa !275
  call void @_ZN10statistics6updateEPKcj(ptr noundef nonnull align 8 dereferenceable(16) %30, ptr noundef @.str.10, i32 noundef %33)
  %34 = load ptr, ptr %4, align 8, !tbaa !267
  %35 = getelementptr inbounds nuw %"class.datalog::execution_context", ptr %5, i32 0, i32 5
  %36 = getelementptr inbounds nuw %"struct.datalog::execution_context::stats", ptr %35, i32 0, i32 7
  %37 = load i32, ptr %36, align 4, !tbaa !276
  call void @_ZN10statistics6updateEPKcj(ptr noundef nonnull align 8 dereferenceable(16) %34, ptr noundef @.str.11, i32 noundef %37)
  %38 = load ptr, ptr %4, align 8, !tbaa !267
  %39 = getelementptr inbounds nuw %"class.datalog::execution_context", ptr %5, i32 0, i32 5
  %40 = getelementptr inbounds nuw %"struct.datalog::execution_context::stats", ptr %39, i32 0, i32 8
  %41 = load i32, ptr %40, align 4, !tbaa !277
  call void @_ZN10statistics6updateEPKcj(ptr noundef nonnull align 8 dereferenceable(16) %38, ptr noundef @.str.12, i32 noundef %41)
  %42 = load ptr, ptr %4, align 8, !tbaa !267
  %43 = getelementptr inbounds nuw %"class.datalog::execution_context", ptr %5, i32 0, i32 5
  %44 = getelementptr inbounds nuw %"struct.datalog::execution_context::stats", ptr %43, i32 0, i32 9
  %45 = load i32, ptr %44, align 4, !tbaa !278
  call void @_ZN10statistics6updateEPKcj(ptr noundef nonnull align 8 dereferenceable(16) %42, ptr noundef @.str.13, i32 noundef %45)
  %46 = load ptr, ptr %4, align 8, !tbaa !267
  %47 = getelementptr inbounds nuw %"class.datalog::execution_context", ptr %5, i32 0, i32 5
  %48 = getelementptr inbounds nuw %"struct.datalog::execution_context::stats", ptr %47, i32 0, i32 10
  %49 = load i32, ptr %48, align 4, !tbaa !279
  call void @_ZN10statistics6updateEPKcj(ptr noundef nonnull align 8 dereferenceable(16) %46, ptr noundef @.str.14, i32 noundef %49)
  %50 = load ptr, ptr %4, align 8, !tbaa !267
  %51 = getelementptr inbounds nuw %"class.datalog::execution_context", ptr %5, i32 0, i32 5
  %52 = getelementptr inbounds nuw %"struct.datalog::execution_context::stats", ptr %51, i32 0, i32 11
  %53 = load i32, ptr %52, align 4, !tbaa !280
  call void @_ZN10statistics6updateEPKcj(ptr noundef nonnull align 8 dereferenceable(16) %50, ptr noundef @.str.15, i32 noundef %53)
  %54 = load ptr, ptr %4, align 8, !tbaa !267
  %55 = getelementptr inbounds nuw %"class.datalog::execution_context", ptr %5, i32 0, i32 5
  %56 = getelementptr inbounds nuw %"struct.datalog::execution_context::stats", ptr %55, i32 0, i32 12
  %57 = load i32, ptr %56, align 4, !tbaa !281
  call void @_ZN10statistics6updateEPKcj(ptr noundef nonnull align 8 dereferenceable(16) %54, ptr noundef @.str.16, i32 noundef %57)
  ret void
}