; Function Attrs: mustprogress uwtable
define hidden void @_ZNK7datalog17execution_context18collect_statisticsER10statistics(ptr noundef nonnull readonly align 8 captures(none) dereferenceable(108) %0, ptr noundef nonnull align 8 dereferenceable(16) %1) local_unnamed_addr #3 align 2 {
  %3 = getelementptr inbounds nuw i8, ptr %0, i64 52
  %4 = load i32, ptr %3, align 4, !tbaa !264
  tail call void @_ZN10statistics6updateEPKcj(ptr noundef nonnull align 8 dereferenceable(16) %1, ptr noundef nonnull @.str.4, i32 noundef %4)
  %5 = getelementptr inbounds nuw i8, ptr %0, i64 56
  %6 = load i32, ptr %5, align 8, !tbaa !265
  tail call void @_ZN10statistics6updateEPKcj(ptr noundef nonnull align 8 dereferenceable(16) %1, ptr noundef nonnull @.str.5, i32 noundef %6)
  %7 = getelementptr inbounds nuw i8, ptr %0, i64 60
  %8 = load i32, ptr %7, align 4, !tbaa !266
  tail call void @_ZN10statistics6updateEPKcj(ptr noundef nonnull align 8 dereferenceable(16) %1, ptr noundef nonnull @.str.6, i32 noundef %8)
  %9 = getelementptr inbounds nuw i8, ptr %0, i64 64
  %10 = load i32, ptr %9, align 8, !tbaa !267
  tail call void @_ZN10statistics6updateEPKcj(ptr noundef nonnull align 8 dereferenceable(16) %1, ptr noundef nonnull @.str.7, i32 noundef %10)
  %11 = getelementptr inbounds nuw i8, ptr %0, i64 68
  %12 = load i32, ptr %11, align 4, !tbaa !268
  tail call void @_ZN10statistics6updateEPKcj(ptr noundef nonnull align 8 dereferenceable(16) %1, ptr noundef nonnull @.str.8, i32 noundef %12)
  %13 = getelementptr inbounds nuw i8, ptr %0, i64 72
  %14 = load i32, ptr %13, align 8, !tbaa !269
  tail call void @_ZN10statistics6updateEPKcj(ptr noundef nonnull align 8 dereferenceable(16) %1, ptr noundef nonnull @.str.9, i32 noundef %14)
  %15 = getelementptr inbounds nuw i8, ptr %0, i64 76
  %16 = load i32, ptr %15, align 4, !tbaa !270
  tail call void @_ZN10statistics6updateEPKcj(ptr noundef nonnull align 8 dereferenceable(16) %1, ptr noundef nonnull @.str.10, i32 noundef %16)
  %17 = getelementptr inbounds nuw i8, ptr %0, i64 80
  %18 = load i32, ptr %17, align 8, !tbaa !271
  tail call void @_ZN10statistics6updateEPKcj(ptr noundef nonnull align 8 dereferenceable(16) %1, ptr noundef nonnull @.str.11, i32 noundef %18)
  %19 = getelementptr inbounds nuw i8, ptr %0, i64 84
  %20 = load i32, ptr %19, align 4, !tbaa !272
  tail call void @_ZN10statistics6updateEPKcj(ptr noundef nonnull align 8 dereferenceable(16) %1, ptr noundef nonnull @.str.12, i32 noundef %20)
  %21 = getelementptr inbounds nuw i8, ptr %0, i64 88
  %22 = load i32, ptr %21, align 8, !tbaa !273
  tail call void @_ZN10statistics6updateEPKcj(ptr noundef nonnull align 8 dereferenceable(16) %1, ptr noundef nonnull @.str.13, i32 noundef %22)
  %23 = getelementptr inbounds nuw i8, ptr %0, i64 92
  %24 = load i32, ptr %23, align 4, !tbaa !274
  tail call void @_ZN10statistics6updateEPKcj(ptr noundef nonnull align 8 dereferenceable(16) %1, ptr noundef nonnull @.str.14, i32 noundef %24)
  %25 = getelementptr inbounds nuw i8, ptr %0, i64 96
  %26 = load i32, ptr %25, align 8, !tbaa !275
  tail call void @_ZN10statistics6updateEPKcj(ptr noundef nonnull align 8 dereferenceable(16) %1, ptr noundef nonnull @.str.15, i32 noundef %26)
  %27 = getelementptr inbounds nuw i8, ptr %0, i64 100
  %28 = load i32, ptr %27, align 4, !tbaa !276
  tail call void @_ZN10statistics6updateEPKcj(ptr noundef nonnull align 8 dereferenceable(16) %1, ptr noundef nonnull @.str.16, i32 noundef %28)
  ret void
}